target datalayout = "e-m:e-p270:32:32-p271:32:32-p272:64:64-i64:64-i128:128-f80:128-n8:16:32:64-S128"
target triple = "x86_64-pc-linux-gnu"

%"class.std::__cxx11::basic_string" = type { %"struct.std::__cxx11::basic_string<char>::_Alloc_hider", i64, %union.anon }
%"struct.std::__cxx11::basic_string<char>::_Alloc_hider" = type { ptr }
%union.anon = type { i64, [8 x i8] }
%"struct.std::_Vector_base.14" = type { %"struct.std::_Vector_base<const Variable *, std::allocator<const Variable *>>::_Vector_impl" }
%"struct.std::_Vector_base<const Variable *, std::allocator<const Variable *>>::_Vector_impl" = type { %"struct.std::_Vector_base<const Variable *, std::allocator<const Variable *>>::_Vector_impl_data" }
%"struct.std::_Vector_base<const Variable *, std::allocator<const Variable *>>::_Vector_impl_data" = type { ptr, ptr, ptr }
%class.Variable = type { ptr, %"class.std::vector.18", %"class.std::__cxx11::basic_string", ptr, ptr, i8, i8, i8, i8, i8, i8, ptr, i8, %class.CVQualifiers }
%"class.std::vector.18" = type { %"struct.std::_Vector_base.19" }
%"struct.std::_Vector_base.19" = type { %"struct.std::_Vector_base<Variable *, std::allocator<Variable *>>::_Vector_impl" }
%"struct.std::_Vector_base<Variable *, std::allocator<Variable *>>::_Vector_impl" = type { %"struct.std::_Vector_base<Variable *, std::allocator<Variable *>>::_Vector_impl_data" }
%"struct.std::_Vector_base<Variable *, std::allocator<Variable *>>::_Vector_impl_data" = type { ptr, ptr, ptr }
%class.CVQualifiers = type { ptr, i8, i8, %"class.std::vector.23", %"class.std::vector.23" }
%"class.std::vector.23" = type { %"struct.std::_Bvector_base" }
%"struct.std::_Bvector_base" = type { %"struct.std::_Bvector_base<std::allocator<bool>>::_Bvector_impl" }
%"struct.std::_Bvector_base<std::allocator<bool>>::_Bvector_impl" = type { %"struct.std::_Bvector_base<std::allocator<bool>>::_Bvector_impl_data" }
%"struct.std::_Bvector_base<std::allocator<bool>>::_Bvector_impl_data" = type { %"struct.std::_Bit_iterator", %"struct.std::_Bit_iterator", ptr }
%"struct.std::_Bit_iterator" = type { %"struct.std::_Bit_iterator_base.base", [4 x i8] }
%"struct.std::_Bit_iterator_base.base" = type <{ ptr, i32 }>
%class.Type = type { i32, ptr, i32, %"class.std::vector.28", %"class.std::vector.33", i32, i8, i8, i8, i8, i8, %"class.std::vector.38", %"class.std::vector.43" }
%"class.std::vector.28" = type { %"struct.std::_Vector_base.29" }
%"struct.std::_Vector_base.29" = type { %"struct.std::_Vector_base<unsigned int, std::allocator<unsigned int>>::_Vector_impl" }
%"struct.std::_Vector_base<unsigned int, std::allocator<unsigned int>>::_Vector_impl" = type { %"struct.std::_Vector_base<unsigned int, std::allocator<unsigned int>>::_Vector_impl_data" }
%"struct.std::_Vector_base<unsigned int, std::allocator<unsigned int>>::_Vector_impl_data" = type { ptr, ptr, ptr }
%"class.std::vector.33" = type { %"struct.std::_Vector_base.34" }
%"struct.std::_Vector_base.34" = type { %"struct.std::_Vector_base<const Type *, std::allocator<const Type *>>::_Vector_impl" }
%"struct.std::_Vector_base<const Type *, std::allocator<const Type *>>::_Vector_impl" = type { %"struct.std::_Vector_base<const Type *, std::allocator<const Type *>>::_Vector_impl_data" }
%"struct.std::_Vector_base<const Type *, std::allocator<const Type *>>::_Vector_impl_data" = type { ptr, ptr, ptr }
%"class.std::vector.38" = type { %"struct.std::_Vector_base.39" }
%"struct.std::_Vector_base.39" = type { %"struct.std::_Vector_base<CVQualifiers, std::allocator<CVQualifiers>>::_Vector_impl" }
%"struct.std::_Vector_base<CVQualifiers, std::allocator<CVQualifiers>>::_Vector_impl" = type { %"struct.std::_Vector_base<CVQualifiers, std::allocator<CVQualifiers>>::_Vector_impl_data" }
%"struct.std::_Vector_base<CVQualifiers, std::allocator<CVQualifiers>>::_Vector_impl_data" = type { ptr, ptr, ptr }
%"class.std::vector.43" = type { %"struct.std::_Vector_base.44" }
%"struct.std::_Vector_base.44" = type { %"struct.std::_Vector_base<int, std::allocator<int>>::_Vector_impl" }
%"struct.std::_Vector_base<int, std::allocator<int>>::_Vector_impl" = type { %"struct.std::_Vector_base<int, std::allocator<int>>::_Vector_impl_data" }
%"struct.std::_Vector_base<int, std::allocator<int>>::_Vector_impl_data" = type { ptr, ptr, ptr }

; Function Attrs: mustprogress uwtable
define dso_local noundef zeroext i1 @_ZNK8Variable13has_field_varEPKS_(ptr noundef nonnull align 8 dereferenceable(200) %0, ptr noundef %1) #6 align 2 {
  %3 = alloca i1, align 1
  %4 = alloca ptr, align 8
  %5 = alloca ptr, align 8
  %6 = alloca ptr, align 8
  %7 = alloca i32, align 4
  store ptr %0, ptr %4, align 8, !tbaa !40
  store ptr %1, ptr %5, align 8, !tbaa !40
  %8 = load ptr, ptr %4, align 8
  %9 = getelementptr inbounds nuw %class.Variable, ptr %8, i32 0, i32 3
  %10 = load ptr, ptr %9, align 8, !tbaa !49
  %11 = call noundef zeroext i1 @_ZNK4Type12is_aggregateEv(ptr noundef nonnull align 8 dereferenceable(136) %10)
  br i1 %11, label %12, label %29

12:                                               ; preds = %2
  call void @llvm.lifetime.start.p0(i64 8, ptr %6) #3
  %13 = load ptr, ptr %5, align 8, !tbaa !40
  store ptr %13, ptr %6, align 8, !tbaa !40
  br label %14

14:                                               ; preds = %21, %12
  %15 = load ptr, ptr %6, align 8, !tbaa !40
  %16 = icmp ne ptr %15, null
  br i1 %16, label %17, label %25

17:                                               ; preds = %14
  %18 = load ptr, ptr %6, align 8, !tbaa !40
  %19 = icmp eq ptr %18, %8
  br i1 %19, label %20, label %21

20:                                               ; preds = %17
  store i1 true, ptr %3, align 1
  store i32 1, ptr %7, align 4
  br label %26

21:                                               ; preds = %17
  %22 = load ptr, ptr %6, align 8, !tbaa !40
  %23 = getelementptr inbounds nuw %class.Variable, ptr %22, i32 0, i32 11
  %24 = load ptr, ptr %23, align 8, !tbaa !86
  store ptr %24, ptr %6, align 8, !tbaa !40
  br label %14, !llvm.loop !124

25:                                               ; preds = %14
  store i32 0, ptr %7, align 4
  br label %26

26:                                               ; preds = %25, %20
  call void @llvm.lifetime.end.p0(i64 8, ptr %6) #3
  %27 = load i32, ptr %7, align 4
  switch i32 %27, label %32 [
    i32 0, label %28
    i32 1, label %30
  ]

28:                                               ; preds = %26
  br label %29

29:                                               ; preds = %28, %2
  store i1 false, ptr %3, align 1
  br label %30

30:                                               ; preds = %29, %26
  %31 = load i1, ptr %3, align 1
  ret i1 %31

32:                                               ; preds = %26
  unreachable
}

; Function Attrs: mustprogress uwtable
define dso_local noundef zeroext i1 @_ZNK8Variable5matchEPKS_(ptr noundef nonnull align 8 dereferenceable(200) %0, ptr noundef %1) #6 align 2 {
  %3 = alloca i1, align 1
  %4 = alloca ptr, align 8
  %5 = alloca ptr, align 8
  store ptr %0, ptr %4, align 8, !tbaa !40
  store ptr %1, ptr %5, align 8, !tbaa !40
  %6 = load ptr, ptr %4, align 8
  %7 = getelementptr inbounds nuw %class.Variable, ptr %6, i32 0, i32 3
  %8 = load ptr, ptr %7, align 8, !tbaa !49
  %9 = icmp ne ptr %8, null
  br i1 %9, label %10, label %27

10:                                               ; preds = %2
  %11 = load ptr, ptr %5, align 8, !tbaa !40
  %12 = getelementptr inbounds nuw %class.Variable, ptr %11, i32 0, i32 3
  %13 = load ptr, ptr %12, align 8, !tbaa !49
  %14 = icmp ne ptr %13, null
  br i1 %14, label %15, label %27

15:                                               ; preds = %10
  %16 = getelementptr inbounds nuw %class.Variable, ptr %6, i32 0, i32 3
  %17 = load ptr, ptr %16, align 8, !tbaa !49
  %18 = call noundef zeroext i1 @_ZNK4Type12is_aggregateEv(ptr noundef nonnull align 8 dereferenceable(136) %17)
  br i1 %18, label %19, label %27

19:                                               ; preds = %15
  %20 = load ptr, ptr %5, align 8, !tbaa !40
  %21 = icmp eq ptr %6, %20
  br i1 %21, label %25, label %22

22:                                               ; preds = %19
  %23 = load ptr, ptr %5, align 8, !tbaa !40
  %24 = call noundef zeroext i1 @_ZNK8Variable13has_field_varEPKS_(ptr noundef nonnull align 8 dereferenceable(200) %6, ptr noundef %23)
  br label %25

25:                                               ; preds = %22, %19
  %26 = phi i1 [ true, %19 ], [ %24, %22 ]
  store i1 %26, ptr %3, align 1
  br label %30

27:                                               ; preds = %15, %10, %2
  %28 = load ptr, ptr %5, align 8, !tbaa !40
  %29 = icmp eq ptr %6, %28
  store i1 %29, ptr %3, align 1
  br label %30

30:                                               ; preds = %27, %25
  %31 = load i1, ptr %3, align 1
  ret i1 %31
}

; Function Attrs: mustprogress nounwind uwtable
define linkonce_odr dso_local noundef nonnull align 8 dereferenceable(8) ptr @_ZNKSt6vectorIPK8VariableSaIS2_EEixEm(ptr noundef nonnull align 8 dereferenceable(24) %0, i64 noundef %1) #4 comdat align 2 {
  %3 = alloca ptr, align 8
  %4 = alloca i64, align 8
  store ptr %0, ptr %3, align 8, !tbaa !38
  store i64 %1, ptr %4, align 8, !tbaa !42
  %5 = load ptr, ptr %3, align 8
  %6 = getelementptr inbounds nuw %"struct.std::_Vector_base.14", ptr %5, i32 0, i32 0
  %7 = getelementptr inbounds nuw %"struct.std::_Vector_base<const Variable *, std::allocator<const Variable *>>::_Vector_impl_data", ptr %6, i32 0, i32 0
  %8 = load ptr, ptr %7, align 8, !tbaa !48
  %9 = load i64, ptr %4, align 8, !tbaa !42
  %10 = getelementptr inbounds nuw ptr, ptr %8, i64 %9
  ret ptr %10
}

; Function Attrs: mustprogress nounwind uwtable
define linkonce_odr dso_local noundef i64 @_ZNKSt6vectorIPK8VariableSaIS2_EE4sizeEv(ptr noundef nonnull align 8 dereferenceable(24) %0) #4 comdat align 2 {
  %2 = alloca ptr, align 8
  store ptr %0, ptr %2, align 8, !tbaa !38
  %3 = load ptr, ptr %2, align 8
  %4 = getelementptr inbounds nuw %"struct.std::_Vector_base.14", ptr %3, i32 0, i32 0
  %5 = getelementptr inbounds nuw %"struct.std::_Vector_base<const Variable *, std::allocator<const Variable *>>::_Vector_impl_data", ptr %4, i32 0, i32 1
  %6 = load ptr, ptr %5, align 8, !tbaa !45
  %7 = getelementptr inbounds nuw %"struct.std::_Vector_base.14", ptr %3, i32 0, i32 0
  %8 = getelementptr inbounds nuw %"struct.std::_Vector_base<const Variable *, std::allocator<const Variable *>>::_Vector_impl_data", ptr %7, i32 0, i32 0
  %9 = load ptr, ptr %8, align 8, !tbaa !48
  %10 = ptrtoint ptr %6 to i64
  %11 = ptrtoint ptr %9 to i64
  %12 = sub i64 %10, %11
  %13 = sdiv exact i64 %12, 8
  ret i64 %13
}

; Function Attrs: mustprogress nounwind uwtable
define linkonce_odr dso_local noundef zeroext i1 @_ZNK4Type12is_aggregateEv(ptr noundef nonnull align 8 dereferenceable(136) %0) #4 comdat align 2 {
  %2 = alloca ptr, align 8
  store ptr %0, ptr %2, align 8, !tbaa !123
  %3 = load ptr, ptr %2, align 8
  %4 = getelementptr inbounds nuw %class.Type, ptr %3, i32 0, i32 0
  %5 = load i32, ptr %4, align 8, !tbaa !97
  %6 = icmp eq i32 %5, 3
  br i1 %6, label %11, label %7

7:                                                ; preds = %1
  %8 = getelementptr inbounds nuw %class.Type, ptr %3, i32 0, i32 0
  %9 = load i32, ptr %8, align 8, !tbaa !97
  %10 = icmp eq i32 %9, 2
  br label %11

11:                                               ; preds = %7, %1
  %12 = phi i1 [ true, %1 ], [ %10, %7 ]
  ret i1 %12
}

; Function Attrs: mustprogress uwtable
define dso_local noundef i32 @_Z20find_variable_in_setRKSt6vectorIPK8VariableSaIS2_EES2_(ptr noundef nonnull align 8 dereferenceable(24) %0, ptr noundef %1) #6 {
  %3 = alloca i32, align 4
  %4 = alloca ptr, align 8
  %5 = alloca ptr, align 8
  %6 = alloca i64, align 8
  %7 = alloca i32, align 4
  store ptr %0, ptr %4, align 8, !tbaa !38
  store ptr %1, ptr %5, align 8, !tbaa !40
  call void @llvm.lifetime.start.p0(i64 8, ptr %6) #3
  store i64 0, ptr %6, align 8, !tbaa !42
  br label %8

8:                                                ; preds = %24, %2
  %9 = load i64, ptr %6, align 8, !tbaa !42
  %10 = load ptr, ptr %4, align 8, !tbaa !38
  %11 = call noundef i64 @_ZNKSt6vectorIPK8VariableSaIS2_EE4sizeEv(ptr noundef nonnull align 8 dereferenceable(24) %10) #3
  %12 = icmp ult i64 %9, %11
  br i1 %12, label %13, label %27

13:                                               ; preds = %8
  %14 = load ptr, ptr %4, align 8, !tbaa !38
  %15 = load i64, ptr %6, align 8, !tbaa !42
  %16 = call noundef nonnull align 8 dereferenceable(8) ptr @_ZNKSt6vectorIPK8VariableSaIS2_EEixEm(ptr noundef nonnull align 8 dereferenceable(24) %14, i64 noundef %15) #3
  %17 = load ptr, ptr %16, align 8, !tbaa !40
  %18 = load ptr, ptr %5, align 8, !tbaa !40
  %19 = call noundef zeroext i1 @_ZNK8Variable5matchEPKS_(ptr noundef nonnull align 8 dereferenceable(200) %17, ptr noundef %18)
  br i1 %19, label %20, label %23

20:                                               ; preds = %13
  %21 = load i64, ptr %6, align 8, !tbaa !42
  %22 = trunc i64 %21 to i32
  store i32 %22, ptr %3, align 4
  store i32 1, ptr %7, align 4
  br label %28

23:                                               ; preds = %13
  br label %24

24:                                               ; preds = %23
  %25 = load i64, ptr %6, align 8, !tbaa !42
  %26 = add i64 %25, 1
  store i64 %26, ptr %6, align 8, !tbaa !42
  br label %8, !llvm.loop !43

27:                                               ; preds = %8
  store i32 -1, ptr %3, align 4
  store i32 1, ptr %7, align 4
  br label %28

28:                                               ; preds = %27, %20
  call void @llvm.lifetime.end.p0(i64 8, ptr %6) #3
  %29 = load i32, ptr %3, align 4
  ret i32 %29
}

; Function Attrs: mustprogress nounwind uwtable
define linkonce_odr dso_local noundef nonnull align 8 dereferenceable(8) ptr @_ZNKSt6vectorIP8VariableSaIS1_EEixEm(ptr noundef nonnull align 8 dereferenceable(24) %0, i64 noundef %1) #4 comdat align 2 {
  %3 = alloca ptr, align 8
  %4 = alloca i64, align 8
  store ptr %0, ptr %3, align 8, !tbaa !69
  store i64 %1, ptr %4, align 8, !tbaa !42
  %5 = load ptr, ptr %3, align 8
  %6 = getelementptr inbounds nuw %"struct.std::_Vector_base.19", ptr %5, i32 0, i32 0
  %7 = getelementptr inbounds nuw %"struct.std::_Vector_base<Variable *, std::allocator<Variable *>>::_Vector_impl_data", ptr %6, i32 0, i32 0
  %8 = load ptr, ptr %7, align 8, !tbaa !73
  %9 = load i64, ptr %4, align 8, !tbaa !42
  %10 = getelementptr inbounds nuw ptr, ptr %8, i64 %9
  ret ptr %10
}

; Function Attrs: mustprogress nounwind uwtable
define linkonce_odr dso_local noundef i64 @_ZNKSt6vectorIP8VariableSaIS1_EE4sizeEv(ptr noundef nonnull align 8 dereferenceable(24) %0) #4 comdat align 2 {
  %2 = alloca ptr, align 8
  store ptr %0, ptr %2, align 8, !tbaa !69
  %3 = load ptr, ptr %2, align 8
  %4 = getelementptr inbounds nuw %"struct.std::_Vector_base.19", ptr %3, i32 0, i32 0
  %5 = getelementptr inbounds nuw %"struct.std::_Vector_base<Variable *, std::allocator<Variable *>>::_Vector_impl_data", ptr %4, i32 0, i32 1
  %6 = load ptr, ptr %5, align 8, !tbaa !72
  %7 = getelementptr inbounds nuw %"struct.std::_Vector_base.19", ptr %3, i32 0, i32 0
  %8 = getelementptr inbounds nuw %"struct.std::_Vector_base<Variable *, std::allocator<Variable *>>::_Vector_impl_data", ptr %7, i32 0, i32 0
  %9 = load ptr, ptr %8, align 8, !tbaa !73
  %10 = ptrtoint ptr %6 to i64
  %11 = ptrtoint ptr %9 to i64
  %12 = sub i64 %10, %11
  %13 = sdiv exact i64 %12, 8
  ret i64 %13
}

; Function Attrs: mustprogress uwtable
define linkonce_odr dso_local noundef zeroext i1 @_ZNK8Variable12is_aggregateEv(ptr noundef nonnull align 8 dereferenceable(200) %0) #6 comdat align 2 {
  %2 = alloca ptr, align 8
  store ptr %0, ptr %2, align 8, !tbaa !40
  %3 = load ptr, ptr %2, align 8
  %4 = getelementptr inbounds nuw %class.Variable, ptr %3, i32 0, i32 3
  %5 = load ptr, ptr %4, align 8, !tbaa !49
  %6 = icmp ne ptr %5, null
  br i1 %6, label %7, label %11

7:                                                ; preds = %1
  %8 = getelementptr inbounds nuw %class.Variable, ptr %3, i32 0, i32 3
  %9 = load ptr, ptr %8, align 8, !tbaa !49
  %10 = call noundef zeroext i1 @_ZNK4Type12is_aggregateEv(ptr noundef nonnull align 8 dereferenceable(136) %9)
  br label %11

11:                                               ; preds = %7, %1
  %12 = phi i1 [ false, %1 ], [ %10, %7 ]
  ret i1 %12
}

; Function Attrs: mustprogress uwtable
define dso_local noundef i32 @_Z26find_field_variable_in_setRKSt6vectorIPK8VariableSaIS2_EES2_(ptr noundef nonnull align 8 dereferenceable(24) %0, ptr noundef %1) #6 {
  %3 = alloca i32, align 4
  %4 = alloca ptr, align 8
  %5 = alloca ptr, align 8
  %6 = alloca i64, align 8
  %7 = alloca ptr, align 8
  %8 = alloca i32, align 4
  %9 = alloca i32, align 4
  store ptr %0, ptr %4, align 8, !tbaa !38
  store ptr %1, ptr %5, align 8, !tbaa !40
  call void @llvm.lifetime.start.p0(i64 8, ptr %6) #3
  %10 = load ptr, ptr %5, align 8, !tbaa !40
  %11 = call noundef zeroext i1 @_ZNK8Variable12is_aggregateEv(ptr noundef nonnull align 8 dereferenceable(200) %10)
  br i1 %11, label %12, label %48

12:                                               ; preds = %2
  store i64 0, ptr %6, align 8, !tbaa !42
  br label %13

13:                                               ; preds = %44, %12
  %14 = load i64, ptr %6, align 8, !tbaa !42
  %15 = load ptr, ptr %5, align 8, !tbaa !40
  %16 = getelementptr inbounds nuw %class.Variable, ptr %15, i32 0, i32 1
  %17 = call noundef i64 @_ZNKSt6vectorIP8VariableSaIS1_EE4sizeEv(ptr noundef nonnull align 8 dereferenceable(24) %16) #3
  %18 = icmp ult i64 %14, %17
  br i1 %18, label %19, label %47

19:                                               ; preds = %13
  call void @llvm.lifetime.start.p0(i64 8, ptr %7) #3
  %20 = load ptr, ptr %5, align 8, !tbaa !40
  %21 = getelementptr inbounds nuw %class.Variable, ptr %20, i32 0, i32 1
  %22 = load i64, ptr %6, align 8, !tbaa !42
  %23 = call noundef nonnull align 8 dereferenceable(8) ptr @_ZNKSt6vectorIP8VariableSaIS1_EEixEm(ptr noundef nonnull align 8 dereferenceable(24) %21, i64 noundef %22) #3
  %24 = load ptr, ptr %23, align 8, !tbaa !40
  store ptr %24, ptr %7, align 8, !tbaa !40
  call void @llvm.lifetime.start.p0(i64 4, ptr %8) #3
  %25 = load ptr, ptr %4, align 8, !tbaa !38
  %26 = load ptr, ptr %7, align 8, !tbaa !40
  %27 = call noundef i32 @_Z20find_variable_in_setRKSt6vectorIPK8VariableSaIS2_EES2_(ptr noundef nonnull align 8 dereferenceable(24) %25, ptr noundef %26)
  store i32 %27, ptr %8, align 4, !tbaa !74
  %28 = load i32, ptr %8, align 4, !tbaa !74
  %29 = icmp ne i32 %28, -1
  br i1 %29, label %30, label %32

30:                                               ; preds = %19
  %31 = load i32, ptr %8, align 4, !tbaa !74
  store i32 %31, ptr %3, align 4
  store i32 1, ptr %9, align 4
  br label %41

32:                                               ; preds = %19
  %33 = load ptr, ptr %4, align 8, !tbaa !38
  %34 = load ptr, ptr %7, align 8, !tbaa !40
  %35 = call noundef i32 @_Z26find_field_variable_in_setRKSt6vectorIPK8VariableSaIS2_EES2_(ptr noundef nonnull align 8 dereferenceable(24) %33, ptr noundef %34)
  store i32 %35, ptr %8, align 4, !tbaa !74
  %36 = load i32, ptr %8, align 4, !tbaa !74
  %37 = icmp ne i32 %36, -1
  br i1 %37, label %38, label %40

38:                                               ; preds = %32
  %39 = load i32, ptr %8, align 4, !tbaa !74
  store i32 %39, ptr %3, align 4
  store i32 1, ptr %9, align 4
  br label %41

40:                                               ; preds = %32
  store i32 0, ptr %9, align 4
  br label %41

41:                                               ; preds = %40, %38, %30
  call void @llvm.lifetime.end.p0(i64 4, ptr %8) #3
  call void @llvm.lifetime.end.p0(i64 8, ptr %7) #3
  %42 = load i32, ptr %9, align 4
  switch i32 %42, label %49 [
    i32 0, label %43
  ]

43:                                               ; preds = %41
  br label %44

44:                                               ; preds = %43
  %45 = load i64, ptr %6, align 8, !tbaa !42
  %46 = add i64 %45, 1
  store i64 %46, ptr %6, align 8, !tbaa !42
  br label %13, !llvm.loop !75

47:                                               ; preds = %13
  br label %48

48:                                               ; preds = %47, %2
  store i32 -1, ptr %3, align 4
  store i32 1, ptr %9, align 4
  br label %49

49:                                               ; preds = %48, %41
  call void @llvm.lifetime.end.p0(i64 8, ptr %6) #3
  %50 = load i32, ptr %3, align 4
  ret i32 %50
}