; Function Attrs: mustprogress nofree nosync nounwind willreturn memory(read, inaccessiblemem: none) uwtable
define dso_local noundef i32 @_Z26find_field_variable_in_setRKSt6vectorIPK8VariableSaIS2_EES2_(ptr noundef nonnull readonly align 8 captures(none) dereferenceable(24) %0, ptr noundef readonly captures(none) %1) local_unnamed_addr #10 {
  %3 = getelementptr inbounds nuw i8, ptr %1, i64 64
  %4 = load ptr, ptr %3, align 8, !tbaa !39
  %.not.i = icmp eq ptr %4, null
  br i1 %.not.i, label %_ZNK8Variable12is_aggregateEv.exit.thread, label %_ZNK8Variable12is_aggregateEv.exit

_ZNK8Variable12is_aggregateEv.exit:               ; preds = %2
  %5 = load i32, ptr %4, align 8, !tbaa !57
  %6 = and i32 %5, -2
  %spec.select.i.i = icmp eq i32 %6, 2
  br i1 %spec.select.i.i, label %.preheader, label %_ZNK8Variable12is_aggregateEv.exit.thread

.preheader:                                       ; preds = %_ZNK8Variable12is_aggregateEv.exit
  %7 = getelementptr inbounds nuw i8, ptr %1, i64 8
  %8 = getelementptr inbounds nuw i8, ptr %1, i64 16
  %9 = load ptr, ptr %8, align 8, !tbaa !83
  %10 = load ptr, ptr %7, align 8, !tbaa !84
  %.not30 = icmp eq ptr %9, %10
  br i1 %.not30, label %_ZNK8Variable12is_aggregateEv.exit.thread, label %.lr.ph

.lr.ph:                                           ; preds = %.preheader
  %11 = ptrtoint ptr %9 to i64
  %12 = ptrtoint ptr %10 to i64
  %13 = sub i64 %11, %12
  %14 = ashr exact i64 %13, 3
  %15 = getelementptr inbounds nuw i8, ptr %0, i64 8
  %16 = load ptr, ptr %15, align 8, !tbaa !33
  %17 = load ptr, ptr %0, align 8, !tbaa !36
  %.not.i20 = icmp eq ptr %16, %17
  %18 = ptrtoint ptr %16 to i64
  %19 = ptrtoint ptr %17 to i64
  %20 = sub i64 %18, %19
  %21 = ashr exact i64 %20, 3
  %umax.i = tail call i64 @llvm.umax.i64(i64 %21, i64 1)
  %umax34 = tail call i64 @llvm.umax.i64(i64 %14, i64 1)
  br i1 %.not.i20, label %_Z20find_variable_in_setRKSt6vectorIPK8VariableSaIS2_EES2_.exit.thread.us, label %.lr.ph.i

_Z20find_variable_in_setRKSt6vectorIPK8VariableSaIS2_EES2_.exit.thread.us: ; preds = %.lr.ph, %25
  %.01626.us = phi i64 [ %26, %25 ], [ 0, %.lr.ph ]
  %22 = getelementptr inbounds nuw ptr, ptr %10, i64 %.01626.us
  %23 = load ptr, ptr %22, align 8, !tbaa !37
  %24 = tail call noundef i32 @_Z26find_field_variable_in_setRKSt6vectorIPK8VariableSaIS2_EES2_(ptr noundef nonnull align 8 dereferenceable(24) %0, ptr noundef %23)
  %.not19.us = icmp eq i32 %24, -1
  br i1 %.not19.us, label %25, label %_ZNK8Variable12is_aggregateEv.exit.thread

25:                                               ; preds = %_Z20find_variable_in_setRKSt6vectorIPK8VariableSaIS2_EES2_.exit.thread.us
  %26 = add nuw i64 %.01626.us, 1
  %exitcond35.not = icmp eq i64 %26, %umax34
  br i1 %exitcond35.not, label %_ZNK8Variable12is_aggregateEv.exit.thread, label %_Z20find_variable_in_setRKSt6vectorIPK8VariableSaIS2_EES2_.exit.thread.us, !llvm.loop !86

27:                                               ; preds = %_Z20find_variable_in_setRKSt6vectorIPK8VariableSaIS2_EES2_.exit.thread
  %28 = add nuw i64 %.01626, 1
  %exitcond.not = icmp eq i64 %28, %umax34
  br i1 %exitcond.not, label %_ZNK8Variable12is_aggregateEv.exit.thread, label %.lr.ph.i, !llvm.loop !86

.lr.ph.i:                                         ; preds = %.lr.ph, %27
  %.01626 = phi i64 [ %28, %27 ], [ 0, %.lr.ph ]
  %29 = getelementptr inbounds nuw ptr, ptr %10, i64 %.01626
  %30 = load ptr, ptr %29, align 8, !tbaa !37
  %31 = getelementptr inbounds nuw i8, ptr %30, i64 64
  br label %32

32:                                               ; preds = %49, %.lr.ph.i
  %.010.i = phi i64 [ 0, %.lr.ph.i ], [ %50, %49 ]
  %33 = getelementptr inbounds nuw ptr, ptr %17, i64 %.010.i
  %34 = load ptr, ptr %33, align 8, !tbaa !37
  %35 = getelementptr inbounds nuw i8, ptr %34, i64 64
  %36 = load ptr, ptr %35, align 8, !tbaa !39
  %.not.i.i = icmp eq ptr %36, null
  br i1 %.not.i.i, label %47, label %37

37:                                               ; preds = %32
  %38 = load ptr, ptr %31, align 8, !tbaa !39
  %.not9.i.i = icmp eq ptr %38, null
  br i1 %.not9.i.i, label %47, label %39

39:                                               ; preds = %37
  %40 = load i32, ptr %36, align 8, !tbaa !57
  %41 = and i32 %40, -2
  %spec.select.i.i.i = icmp eq i32 %41, 2
  br i1 %spec.select.i.i.i, label %42, label %47

42:                                               ; preds = %39
  %43 = icmp eq ptr %34, %30
  br i1 %43, label %_Z20find_variable_in_setRKSt6vectorIPK8VariableSaIS2_EES2_.exit, label %.lr.ph.i.i.i

.lr.ph.i.i.i:                                     ; preds = %42, %.lr.ph.i.i.i
  %.0611.i.i.i = phi ptr [ %45, %.lr.ph.i.i.i ], [ %30, %42 ]
  %44 = getelementptr inbounds nuw i8, ptr %.0611.i.i.i, i64 88
  %45 = load ptr, ptr %44, align 8, !tbaa !80
  %.not.i.i.i = icmp ne ptr %45, null
  %46 = icmp ne ptr %45, %34
  %or.cond.not.i.i.i = and i1 %46, %.not.i.i.i
  br i1 %or.cond.not.i.i.i, label %.lr.ph.i.i.i, label %_ZNK8Variable5matchEPKS_.exit.i, !llvm.loop !81

47:                                               ; preds = %39, %37, %32
  %48 = icmp eq ptr %34, %30
  br i1 %48, label %_Z20find_variable_in_setRKSt6vectorIPK8VariableSaIS2_EES2_.exit, label %49

_ZNK8Variable5matchEPKS_.exit.i:                  ; preds = %.lr.ph.i.i.i
  br i1 %.not.i.i.i, label %_Z20find_variable_in_setRKSt6vectorIPK8VariableSaIS2_EES2_.exit, label %49

49:                                               ; preds = %_ZNK8Variable5matchEPKS_.exit.i, %47
  %50 = add nuw i64 %.010.i, 1
  %exitcond.not.i = icmp eq i64 %50, %umax.i
  br i1 %exitcond.not.i, label %_Z20find_variable_in_setRKSt6vectorIPK8VariableSaIS2_EES2_.exit.thread, label %32, !llvm.loop !82

_Z20find_variable_in_setRKSt6vectorIPK8VariableSaIS2_EES2_.exit: ; preds = %42, %47, %_ZNK8Variable5matchEPKS_.exit.i
  %51 = trunc i64 %.010.i to i32
  %.not = icmp eq i32 %51, -1
  br i1 %.not, label %_Z20find_variable_in_setRKSt6vectorIPK8VariableSaIS2_EES2_.exit.thread, label %_ZNK8Variable12is_aggregateEv.exit.thread

_Z20find_variable_in_setRKSt6vectorIPK8VariableSaIS2_EES2_.exit.thread: ; preds = %49, %_Z20find_variable_in_setRKSt6vectorIPK8VariableSaIS2_EES2_.exit
  %52 = tail call noundef i32 @_Z26find_field_variable_in_setRKSt6vectorIPK8VariableSaIS2_EES2_(ptr noundef nonnull align 8 dereferenceable(24) %0, ptr noundef %30)
  %.not19 = icmp eq i32 %52, -1
  br i1 %.not19, label %27, label %_ZNK8Variable12is_aggregateEv.exit.thread

_ZNK8Variable12is_aggregateEv.exit.thread:        ; preds = %_Z20find_variable_in_setRKSt6vectorIPK8VariableSaIS2_EES2_.exit.thread, %27, %_Z20find_variable_in_setRKSt6vectorIPK8VariableSaIS2_EES2_.exit, %_Z20find_variable_in_setRKSt6vectorIPK8VariableSaIS2_EES2_.exit.thread.us, %25, %.preheader, %2, %_ZNK8Variable12is_aggregateEv.exit
  %.2 = phi i32 [ -1, %_ZNK8Variable12is_aggregateEv.exit ], [ -1, %2 ], [ -1, %.preheader ], [ %24, %_Z20find_variable_in_setRKSt6vectorIPK8VariableSaIS2_EES2_.exit.thread.us ], [ -1, %25 ], [ %52, %_Z20find_variable_in_setRKSt6vectorIPK8VariableSaIS2_EES2_.exit.thread ], [ -1, %27 ], [ %51, %_Z20find_variable_in_setRKSt6vectorIPK8VariableSaIS2_EES2_.exit ]
  ret i32 %.2
}